target datalayout = "e-m:e-p270:32:32-p271:32:32-p272:64:64-i64:64-i128:128-f80:128-n8:16:32:64-S128"
target triple = "x86_64-pc-linux-gnu"

%struct.repository = type { ptr, ptr, ptr, ptr, ptr, %struct.strmap, %struct.strmap, %struct.repo_path_cache, ptr, ptr, ptr, ptr, %struct.repo_settings, ptr, ptr, ptr, ptr, ptr, ptr, i32, i32, i32, ptr, ptr, i32, i32, i8 }
%struct.strmap = type { %struct.hashmap, ptr, i8 }
%struct.hashmap = type { ptr, ptr, ptr, i32, i32, i32, i32, i8 }
%struct.repo_path_cache = type { ptr, ptr, ptr, ptr, ptr, ptr, ptr }
%struct.repo_settings = type { i32, i32, i32, i32, i32, i32, i32, i32, i32, i32, i32, i32, ptr, i32, i32, i32, i32, i32, i32, i32, i64, i64, i64 }
%struct.parsed_object_pool = type { ptr, ptr, i32, i32, ptr, ptr, ptr, ptr, ptr, ptr, i32, i32, i32, ptr, ptr, i32, i32, ptr }
%struct.commit_graft = type { %struct.object_id, i32, [0 x %struct.object_id] }
%struct.object_id = type { [32 x i8], i32 }
%struct.commit = type { %struct.object, i64, ptr, ptr, i32 }
%struct.object = type { i32, %struct.object_id }

@.str.2 = private unnamed_addr constant [2 x i8] c"r\00", align 1
@.str.3 = private unnamed_addr constant [21 x i8] c"bad shallow line: %s\00", align 1

; Function Attrs: inlinehint nounwind uwtable
define internal void @oidcpy(ptr noundef %0, ptr noundef %1) #3 {
  %3 = alloca ptr, align 8
  %4 = alloca ptr, align 8
  store ptr %0, ptr %3, align 8, !tbaa !40
  store ptr %1, ptr %4, align 8, !tbaa !40
  %5 = load ptr, ptr %3, align 8, !tbaa !40
  %6 = getelementptr inbounds nuw %struct.object_id, ptr %5, i32 0, i32 0
  %7 = getelementptr inbounds [32 x i8], ptr %6, i64 0, i64 0
  %8 = load ptr, ptr %4, align 8, !tbaa !40
  %9 = getelementptr inbounds nuw %struct.object_id, ptr %8, i32 0, i32 0
  %10 = getelementptr inbounds [32 x i8], ptr %9, i64 0, i64 0
  call void @llvm.memcpy.p0.p0.i64(ptr align 4 %7, ptr align 4 %10, i64 32, i1 false)
  %11 = load ptr, ptr %4, align 8, !tbaa !40
  %12 = getelementptr inbounds nuw %struct.object_id, ptr %11, i32 0, i32 1
  %13 = load i32, ptr %12, align 4, !tbaa !52
  %14 = load ptr, ptr %3, align 8, !tbaa !40
  %15 = getelementptr inbounds nuw %struct.object_id, ptr %14, i32 0, i32 1
  store i32 %13, ptr %15, align 4, !tbaa !52
  ret void
}

; Function Attrs: nounwind uwtable
define dso_local i32 @register_shallow(ptr noundef %0, ptr noundef %1) #0 {
  %3 = alloca ptr, align 8
  %4 = alloca ptr, align 8
  %5 = alloca ptr, align 8
  %6 = alloca ptr, align 8
  store ptr %0, ptr %3, align 8, !tbaa !4
  store ptr %1, ptr %4, align 8, !tbaa !40
  call void @llvm.lifetime.start.p0(i64 8, ptr %5) #12
  %7 = call ptr @xmalloc(i64 noundef 40)
  store ptr %7, ptr %5, align 8, !tbaa !42
  call void @llvm.lifetime.start.p0(i64 8, ptr %6) #12
  %8 = load ptr, ptr %3, align 8, !tbaa !4
  %9 = load ptr, ptr %4, align 8, !tbaa !40
  %10 = call ptr @lookup_commit(ptr noundef %8, ptr noundef %9)
  store ptr %10, ptr %6, align 8, !tbaa !44
  %11 = load ptr, ptr %5, align 8, !tbaa !42
  %12 = getelementptr inbounds nuw %struct.commit_graft, ptr %11, i32 0, i32 0
  %13 = load ptr, ptr %4, align 8, !tbaa !40
  call void @oidcpy(ptr noundef %12, ptr noundef %13)
  %14 = load ptr, ptr %5, align 8, !tbaa !42
  %15 = getelementptr inbounds nuw %struct.commit_graft, ptr %14, i32 0, i32 1
  store i32 -1, ptr %15, align 4, !tbaa !11
  %16 = load ptr, ptr %6, align 8, !tbaa !44
  %17 = icmp ne ptr %16, null
  br i1 %17, label %18, label %30

18:                                               ; preds = %2
  %19 = load ptr, ptr %6, align 8, !tbaa !44
  %20 = getelementptr inbounds nuw %struct.commit, ptr %19, i32 0, i32 0
  %21 = load i32, ptr %20, align 8
  %22 = and i32 %21, 1
  %23 = icmp ne i32 %22, 0
  br i1 %23, label %24, label %30

24:                                               ; preds = %18
  %25 = load ptr, ptr %6, align 8, !tbaa !44
  %26 = getelementptr inbounds nuw %struct.commit, ptr %25, i32 0, i32 2
  %27 = load ptr, ptr %26, align 8, !tbaa !46
  call void @free_commit_list(ptr noundef %27)
  %28 = load ptr, ptr %6, align 8, !tbaa !44
  %29 = getelementptr inbounds nuw %struct.commit, ptr %28, i32 0, i32 2
  store ptr null, ptr %29, align 8, !tbaa !46
  br label %30

30:                                               ; preds = %24, %18, %2
  %31 = load ptr, ptr %3, align 8, !tbaa !4
  %32 = load ptr, ptr %5, align 8, !tbaa !42
  %33 = call i32 @register_commit_graft(ptr noundef %31, ptr noundef %32, i32 noundef 0)
  call void @llvm.lifetime.end.p0(i64 8, ptr %6) #12
  call void @llvm.lifetime.end.p0(i64 8, ptr %5) #12
  ret i32 %33
}

; Function Attrs: nounwind uwtable
define dso_local i32 @is_repository_shallow(ptr noundef %0) #0 {
  %2 = alloca i32, align 4
  %3 = alloca ptr, align 8
  %4 = alloca ptr, align 8
  %5 = alloca [1024 x i8], align 16
  %6 = alloca ptr, align 8
  %7 = alloca i32, align 4
  %8 = alloca %struct.object_id, align 4
  store ptr %0, ptr %3, align 8, !tbaa !4
  call void @llvm.lifetime.start.p0(i64 8, ptr %4) #12
  call void @llvm.lifetime.start.p0(i64 1024, ptr %5) #12
  call void @llvm.lifetime.start.p0(i64 8, ptr %6) #12
  %9 = load ptr, ptr %3, align 8, !tbaa !4
  %10 = getelementptr inbounds nuw %struct.repository, ptr %9, i32 0, i32 3
  %11 = load ptr, ptr %10, align 8, !tbaa !13
  %12 = getelementptr inbounds nuw %struct.parsed_object_pool, ptr %11, i32 0, i32 14
  %13 = load ptr, ptr %12, align 8, !tbaa !39
  store ptr %13, ptr %6, align 8, !tbaa !9
  %14 = load ptr, ptr %3, align 8, !tbaa !4
  %15 = getelementptr inbounds nuw %struct.repository, ptr %14, i32 0, i32 3
  %16 = load ptr, ptr %15, align 8, !tbaa !13
  %17 = getelementptr inbounds nuw %struct.parsed_object_pool, ptr %16, i32 0, i32 12
  %18 = load i32, ptr %17, align 8, !tbaa !32
  %19 = icmp sge i32 %18, 0
  br i1 %19, label %20, label %26

20:                                               ; preds = %1
  %21 = load ptr, ptr %3, align 8, !tbaa !4
  %22 = getelementptr inbounds nuw %struct.repository, ptr %21, i32 0, i32 3
  %23 = load ptr, ptr %22, align 8, !tbaa !13
  %24 = getelementptr inbounds nuw %struct.parsed_object_pool, ptr %23, i32 0, i32 12
  %25 = load i32, ptr %24, align 8, !tbaa !32
  store i32 %25, ptr %2, align 4
  store i32 1, ptr %7, align 4
  br label %89

26:                                               ; preds = %1
  %27 = load ptr, ptr %6, align 8, !tbaa !9
  %28 = icmp ne ptr %27, null
  br i1 %28, label %32, label %29

29:                                               ; preds = %26
  %30 = load ptr, ptr %3, align 8, !tbaa !4
  %31 = call ptr @git_path_shallow(ptr noundef %30)
  store ptr %31, ptr %6, align 8, !tbaa !9
  br label %32

32:                                               ; preds = %29, %26
  %33 = load ptr, ptr %6, align 8, !tbaa !9
  %34 = load i8, ptr %33, align 1, !tbaa !57
  %35 = icmp ne i8 %34, 0
  br i1 %35, label %36, label %40

36:                                               ; preds = %32
  %37 = load ptr, ptr %6, align 8, !tbaa !9
  %38 = call ptr @git_fopen(ptr noundef %37, ptr noundef @.str.2)
  store ptr %38, ptr %4, align 8, !tbaa !58
  %39 = icmp eq ptr %38, null
  br i1 %39, label %40, label %55

40:                                               ; preds = %36, %32
  %41 = load ptr, ptr %3, align 8, !tbaa !4
  %42 = getelementptr inbounds nuw %struct.repository, ptr %41, i32 0, i32 3
  %43 = load ptr, ptr %42, align 8, !tbaa !13
  %44 = getelementptr inbounds nuw %struct.parsed_object_pool, ptr %43, i32 0, i32 13
  %45 = load ptr, ptr %44, align 8, !tbaa !60
  call void @stat_validity_clear(ptr noundef %45)
  %46 = load ptr, ptr %3, align 8, !tbaa !4
  %47 = getelementptr inbounds nuw %struct.repository, ptr %46, i32 0, i32 3
  %48 = load ptr, ptr %47, align 8, !tbaa !13
  %49 = getelementptr inbounds nuw %struct.parsed_object_pool, ptr %48, i32 0, i32 12
  store i32 0, ptr %49, align 8, !tbaa !32
  %50 = load ptr, ptr %3, align 8, !tbaa !4
  %51 = getelementptr inbounds nuw %struct.repository, ptr %50, i32 0, i32 3
  %52 = load ptr, ptr %51, align 8, !tbaa !13
  %53 = getelementptr inbounds nuw %struct.parsed_object_pool, ptr %52, i32 0, i32 12
  %54 = load i32, ptr %53, align 8, !tbaa !32
  store i32 %54, ptr %2, align 4
  store i32 1, ptr %7, align 4
  br label %89

55:                                               ; preds = %36
  %56 = load ptr, ptr %3, align 8, !tbaa !4
  %57 = getelementptr inbounds nuw %struct.repository, ptr %56, i32 0, i32 3
  %58 = load ptr, ptr %57, align 8, !tbaa !13
  %59 = getelementptr inbounds nuw %struct.parsed_object_pool, ptr %58, i32 0, i32 13
  %60 = load ptr, ptr %59, align 8, !tbaa !60
  %61 = load ptr, ptr %4, align 8, !tbaa !58
  %62 = call i32 @fileno(ptr noundef %61) #12
  call void @stat_validity_update(ptr noundef %60, i32 noundef %62)
  %63 = load ptr, ptr %3, align 8, !tbaa !4
  %64 = getelementptr inbounds nuw %struct.repository, ptr %63, i32 0, i32 3
  %65 = load ptr, ptr %64, align 8, !tbaa !13
  %66 = getelementptr inbounds nuw %struct.parsed_object_pool, ptr %65, i32 0, i32 12
  store i32 1, ptr %66, align 8, !tbaa !32
  br label %67

67:                                               ; preds = %78, %55
  %68 = getelementptr inbounds [1024 x i8], ptr %5, i64 0, i64 0
  %69 = load ptr, ptr %4, align 8, !tbaa !58
  %70 = call ptr @fgets(ptr noundef %68, i32 noundef 1024, ptr noundef %69)
  %71 = icmp ne ptr %70, null
  br i1 %71, label %72, label %81

72:                                               ; preds = %67
  call void @llvm.lifetime.start.p0(i64 36, ptr %8) #12
  %73 = getelementptr inbounds [1024 x i8], ptr %5, i64 0, i64 0
  %74 = call i32 @get_oid_hex(ptr noundef %73, ptr noundef %8)
  %75 = icmp ne i32 %74, 0
  br i1 %75, label %76, label %78

76:                                               ; preds = %72
  %77 = getelementptr inbounds [1024 x i8], ptr %5, i64 0, i64 0
  call void (ptr, ...) @die(ptr noundef @.str.3, ptr noundef %77) #11
  unreachable

78:                                               ; preds = %72
  %79 = load ptr, ptr %3, align 8, !tbaa !4
  %80 = call i32 @register_shallow(ptr noundef %79, ptr noundef %8)
  call void @llvm.lifetime.end.p0(i64 36, ptr %8) #12
  br label %67, !llvm.loop !61

81:                                               ; preds = %67
  %82 = load ptr, ptr %4, align 8, !tbaa !58
  %83 = call i32 @fclose(ptr noundef %82)
  %84 = load ptr, ptr %3, align 8, !tbaa !4
  %85 = getelementptr inbounds nuw %struct.repository, ptr %84, i32 0, i32 3
  %86 = load ptr, ptr %85, align 8, !tbaa !13
  %87 = getelementptr inbounds nuw %struct.parsed_object_pool, ptr %86, i32 0, i32 12
  %88 = load i32, ptr %87, align 8, !tbaa !32
  store i32 %88, ptr %2, align 4
  store i32 1, ptr %7, align 4
  br label %89

89:                                               ; preds = %81, %40, %20
  call void @llvm.lifetime.end.p0(i64 8, ptr %6) #12
  call void @llvm.lifetime.end.p0(i64 1024, ptr %5) #12
  call void @llvm.lifetime.end.p0(i64 8, ptr %4) #12
  %90 = load i32, ptr %2, align 4
  ret i32 %90
}