; Function Attrs: nounwind uwtable
define dso_local i32 @is_repository_shallow(ptr noundef %0) local_unnamed_addr #0 {
  %2 = alloca [1024 x i8], align 16
  %3 = alloca %struct.object_id, align 4
  call void @llvm.lifetime.start.p0(i64 1024, ptr nonnull %2) #15
  %4 = getelementptr inbounds nuw i8, ptr %0, i64 24
  %5 = load ptr, ptr %4, align 8, !tbaa !4
  %6 = getelementptr inbounds nuw i8, ptr %5, i64 80
  %7 = load i32, ptr %6, align 8, !tbaa !28
  %8 = icmp sgt i32 %7, -1
  br i1 %8, label %54, label %9

9:                                                ; preds = %1
  %10 = getelementptr inbounds nuw i8, ptr %5, i64 96
  %11 = load ptr, ptr %10, align 8, !tbaa !36
  %.not = icmp eq ptr %11, null
  br i1 %.not, label %12, label %14

12:                                               ; preds = %9
  %13 = tail call ptr @git_path_shallow(ptr noundef nonnull %0) #15
  br label %14

14:                                               ; preds = %12, %9
  %.0 = phi ptr [ %11, %9 ], [ %13, %12 ]
  %15 = load i8, ptr %.0, align 1, !tbaa !50
  %.not21 = icmp eq i8 %15, 0
  br i1 %.not21, label %._crit_edge25, label %16

._crit_edge25:                                    ; preds = %14
  %.pre = load ptr, ptr %4, align 8, !tbaa !4
  br label %19

16:                                               ; preds = %14
  %17 = tail call ptr @git_fopen(ptr noundef nonnull %.0, ptr noundef nonnull @.str.2) #15
  %18 = icmp eq ptr %17, null
  %.pre26 = load ptr, ptr %4, align 8, !tbaa !4
  br i1 %18, label %19, label %25

19:                                               ; preds = %._crit_edge25, %16
  %20 = phi ptr [ %.pre, %._crit_edge25 ], [ %.pre26, %16 ]
  %21 = getelementptr inbounds nuw i8, ptr %20, i64 88
  %22 = load ptr, ptr %21, align 8, !tbaa !51
  tail call void @stat_validity_clear(ptr noundef %22) #15
  %23 = load ptr, ptr %4, align 8, !tbaa !4
  %24 = getelementptr inbounds nuw i8, ptr %23, i64 80
  store i32 0, ptr %24, align 8, !tbaa !28
  br label %54

25:                                               ; preds = %16
  %26 = getelementptr inbounds nuw i8, ptr %.pre26, i64 88
  %27 = load ptr, ptr %26, align 8, !tbaa !51
  %28 = tail call i32 @fileno(ptr noundef nonnull %17) #15
  tail call void @stat_validity_update(ptr noundef %27, i32 noundef %28) #15
  %29 = load ptr, ptr %4, align 8, !tbaa !4
  %30 = getelementptr inbounds nuw i8, ptr %29, i64 80
  store i32 1, ptr %30, align 8, !tbaa !28
  %31 = call ptr @fgets(ptr noundef nonnull %2, i32 noundef 1024, ptr noundef nonnull %17)
  %.not2224 = icmp eq ptr %31, null
  br i1 %.not2224, label %._crit_edge, label %.lr.ph

.lr.ph:                                           ; preds = %25
  %32 = getelementptr inbounds nuw i8, ptr %3, i64 32
  br label %33

33:                                               ; preds = %.lr.ph, %register_shallow.exit
  call void @llvm.lifetime.start.p0(i64 36, ptr nonnull %3) #15
  %34 = call i32 @get_oid_hex(ptr noundef nonnull %2, ptr noundef nonnull %3) #15
  %.not23 = icmp eq i32 %34, 0
  br i1 %.not23, label %36, label %35

35:                                               ; preds = %33
  call void (ptr, ...) @die(ptr noundef nonnull @.str.3, ptr noundef nonnull %2) #14
  unreachable

36:                                               ; preds = %33
  %37 = call ptr @xmalloc(i64 noundef 40) #15
  %38 = call ptr @lookup_commit(ptr noundef %0, ptr noundef nonnull %3) #15
  call void @llvm.memcpy.p0.p0.i64(ptr noundef nonnull align 4 dereferenceable(32) %37, ptr noundef nonnull readonly align 4 dereferenceable(32) %3, i64 32, i1 false)
  %39 = load i32, ptr %32, align 4, !tbaa !37
  %40 = getelementptr inbounds nuw i8, ptr %37, i64 32
  store i32 %39, ptr %40, align 4, !tbaa !37
  %41 = getelementptr inbounds nuw i8, ptr %37, i64 36
  store i32 -1, ptr %41, align 4, !tbaa !39
  %.not.i = icmp eq ptr %38, null
  br i1 %.not.i, label %register_shallow.exit, label %42

42:                                               ; preds = %36
  %43 = load i32, ptr %38, align 8
  %44 = and i32 %43, 1
  %.not11.i = icmp eq i32 %44, 0
  br i1 %.not11.i, label %register_shallow.exit, label %45

45:                                               ; preds = %42
  %46 = getelementptr inbounds nuw i8, ptr %38, i64 48
  %47 = load ptr, ptr %46, align 8, !tbaa !40
  call void @free_commit_list(ptr noundef %47) #15
  store ptr null, ptr %46, align 8, !tbaa !40
  br label %register_shallow.exit

register_shallow.exit:                            ; preds = %36, %42, %45
  %48 = call i32 @register_commit_graft(ptr noundef %0, ptr noundef nonnull %37, i32 noundef 0) #15
  call void @llvm.lifetime.end.p0(i64 36, ptr nonnull %3) #15
  %49 = call ptr @fgets(ptr noundef nonnull %2, i32 noundef 1024, ptr noundef nonnull %17)
  %.not22 = icmp eq ptr %49, null
  br i1 %.not22, label %._crit_edge, label %33, !llvm.loop !52

._crit_edge:                                      ; preds = %register_shallow.exit, %25
  %50 = call i32 @fclose(ptr noundef nonnull %17)
  %51 = load ptr, ptr %4, align 8, !tbaa !4
  %52 = getelementptr inbounds nuw i8, ptr %51, i64 80
  %53 = load i32, ptr %52, align 8, !tbaa !28
  br label %54

54:                                               ; preds = %1, %._crit_edge, %19
  %.017 = phi i32 [ 0, %19 ], [ %53, %._crit_edge ], [ %7, %1 ]
  call void @llvm.lifetime.end.p0(i64 1024, ptr nonnull %2) #15
  ret i32 %.017
}